; Function Attrs: mustprogress uwtable
define noundef ptr @_ZN3gmx14gmx_rmpbc_initERKNS_19TopologyInformationE(ptr nocapture noundef nonnull align 8 dereferenceable(128) %0) local_unnamed_addr #7 {
  %2 = getelementptr inbounds i8, ptr %0, i64 8
  %3 = load i8, ptr %2, align 8
  %4 = trunc i8 %3 to i1
  br i1 %4, label %6, label %5

5:                                                ; preds = %1
  tail call void @_ZN3gmx8internal13assertHandlerEPKcS2_S2_S2_i(ptr noundef nonnull @.str.9, ptr noundef nonnull @.str.10, ptr noundef nonnull @"__PRETTY_FUNCTION__._ZZN3gmx14gmx_rmpbc_initERKNS_19TopologyInformationEENK3$_0clEv", ptr noundef nonnull @.str.1, i32 noundef 184) #19
  unreachable

6:                                                ; preds = %1
  %7 = tail call noundef ptr @_ZNK3gmx19TopologyInformation16expandedTopologyEv(ptr noundef nonnull align 8 dereferenceable(128) %0)
  %8 = getelementptr inbounds i8, ptr %0, i64 124
  %9 = load i32, ptr %8, align 4
  %10 = load ptr, ptr %0, align 8
  %11 = getelementptr inbounds i8, ptr %10, i64 176
  %12 = load i32, ptr %11, align 8
  %13 = tail call noundef ptr @_Z14gmx_rmpbc_initRK22InteractionDefinitions7PbcTypei(ptr noundef nonnull align 8 dereferenceable(2736) %7, i32 noundef %9, i32 noundef %12)
  ret ptr %13
}